; ModuleID = '23/47.c'
source_filename = "23/47.c"
target datalayout = "e-m:e-p270:32:32-p271:32:32-p272:64:64-i64:64-f80:128-n8:16:32:64-S128"
target triple = "x86_64-pc-linux-gnu"

@.str = private unnamed_addr constant [3 x i8] c"%s\00", align 1
@.str.1 = private unnamed_addr constant [4 x i8] c"%s \00", align 1

; Function Attrs: noinline nounwind uwtable
define dso_local void @main() #0 {
  %1 = alloca [100 x [20 x i8]], align 16
  %2 = alloca [100 x i8], align 16
  %3 = alloca i32, align 4
  %4 = alloca i32, align 4
  %5 = alloca i32, align 4
  %6 = alloca i32, align 4
  %7 = bitcast [100 x [20 x i8]]* %1 to i8*
  call void @llvm.memset.p0i8.i64(i8* align 16 %7, i8 0, i64 2000, i1 false)
  %8 = bitcast [100 x i8]* %2 to i8*
  call void @llvm.memset.p0i8.i64(i8* align 16 %8, i8 0, i64 100, i1 false)
  %9 = getelementptr inbounds [100 x i8], [100 x i8]* %2, i64 0, i64 0
  %10 = call i32 (i8*, ...) bitcast (i32 (...)* @gets to i32 (i8*, ...)*)(i8* %9)
  store i32 0, i32* %4, align 4
  store i32 0, i32* %3, align 4
  br label %11

11:                                               ; preds = %29, %0
  %12 = load i32, i32* %3, align 4
  %13 = sext i32 %12 to i64
  %14 = getelementptr inbounds [100 x i8], [100 x i8]* %2, i64 0, i64 %13
  %15 = load i8, i8* %14, align 1
  %16 = sext i8 %15 to i32
  %17 = icmp ne i32 %16, 0
  br i1 %17, label %18, label %32

18:                                               ; preds = %11
  %19 = load i32, i32* %3, align 4
  %20 = sext i32 %19 to i64
  %21 = getelementptr inbounds [100 x i8], [100 x i8]* %2, i64 0, i64 %20
  %22 = load i8, i8* %21, align 1
  %23 = sext i8 %22 to i32
  %24 = icmp eq i32 %23, 32
  br i1 %24, label %25, label %28

25:                                               ; preds = %18
  %26 = load i32, i32* %4, align 4
  %27 = add nsw i32 %26, 1
  store i32 %27, i32* %4, align 4
  br label %28

28:                                               ; preds = %25, %18
  br label %29

29:                                               ; preds = %28
  %30 = load i32, i32* %3, align 4
  %31 = add nsw i32 %30, 1
  store i32 %31, i32* %3, align 4
  br label %11

32:                                               ; preds = %11
  %33 = load i32, i32* %4, align 4
  %34 = add nsw i32 %33, 1
  store i32 %34, i32* %4, align 4
  store i32 0, i32* %6, align 4
  store i32 0, i32* %3, align 4
  br label %35

35:                                               ; preds = %78, %32
  %36 = load i32, i32* %3, align 4
  %37 = load i32, i32* %4, align 4
  %38 = icmp slt i32 %36, %37
  br i1 %38, label %39, label %81

39:                                               ; preds = %35
  store i32 0, i32* %5, align 4
  br label %40

40:                                               ; preds = %72, %39
  %41 = load i32, i32* %5, align 4
  %42 = icmp slt i32 %41, 100
  br i1 %42, label %43, label %75

43:                                               ; preds = %40
  %44 = load i32, i32* %6, align 4
  %45 = sext i32 %44 to i64
  %46 = getelementptr inbounds [100 x i8], [100 x i8]* %2, i64 0, i64 %45
  %47 = load i8, i8* %46, align 1
  %48 = sext i8 %47 to i32
  %49 = icmp ne i32 %48, 32
  br i1 %49, label %50, label %63

50:                                               ; preds = %43
  %51 = load i32, i32* %6, align 4
  %52 = sext i32 %51 to i64
  %53 = getelementptr inbounds [100 x i8], [100 x i8]* %2, i64 0, i64 %52
  %54 = load i8, i8* %53, align 1
  %55 = load i32, i32* %3, align 4
  %56 = sext i32 %55 to i64
  %57 = getelementptr inbounds [100 x [20 x i8]], [100 x [20 x i8]]* %1, i64 0, i64 %56
  %58 = load i32, i32* %5, align 4
  %59 = sext i32 %58 to i64
  %60 = getelementptr inbounds [20 x i8], [20 x i8]* %57, i64 0, i64 %59
  store i8 %54, i8* %60, align 1
  %61 = load i32, i32* %6, align 4
  %62 = add nsw i32 %61, 1
  store i32 %62, i32* %6, align 4
  br label %63

63:                                               ; preds = %50, %43
  %64 = load i32, i32* %6, align 4
  %65 = sext i32 %64 to i64
  %66 = getelementptr inbounds [100 x i8], [100 x i8]* %2, i64 0, i64 %65
  %67 = load i8, i8* %66, align 1
  %68 = sext i8 %67 to i32
  %69 = icmp eq i32 %68, 32
  br i1 %69, label %70, label %71

70:                                               ; preds = %63
  br label %75

71:                                               ; preds = %63
  br label %72

72:                                               ; preds = %71
  %73 = load i32, i32* %5, align 4
  %74 = add nsw i32 %73, 1
  store i32 %74, i32* %5, align 4
  br label %40

75:                                               ; preds = %70, %40
  %76 = load i32, i32* %6, align 4
  %77 = add nsw i32 %76, 1
  store i32 %77, i32* %6, align 4
  br label %78

78:                                               ; preds = %75
  %79 = load i32, i32* %3, align 4
  %80 = add nsw i32 %79, 1
  store i32 %80, i32* %3, align 4
  br label %35

81:                                               ; preds = %35
  %82 = load i32, i32* %4, align 4
  %83 = sext i32 %82 to i64
  %84 = getelementptr inbounds [100 x [20 x i8]], [100 x [20 x i8]]* %1, i64 0, i64 %83
  %85 = getelementptr inbounds [20 x i8], [20 x i8]* %84, i64 0, i64 0
  %86 = call i32 (i8*, ...) @printf(i8* getelementptr inbounds ([3 x i8], [3 x i8]* @.str, i64 0, i64 0), i8* %85)
  %87 = load i32, i32* %4, align 4
  %88 = sub nsw i32 %87, 1
  store i32 %88, i32* %3, align 4
  br label %89

89:                                               ; preds = %98, %81
  %90 = load i32, i32* %3, align 4
  %91 = icmp sgt i32 %90, 0
  br i1 %91, label %92, label %101

92:                                               ; preds = %89
  %93 = load i32, i32* %3, align 4
  %94 = sext i32 %93 to i64
  %95 = getelementptr inbounds [100 x [20 x i8]], [100 x [20 x i8]]* %1, i64 0, i64 %94
  %96 = getelementptr inbounds [20 x i8], [20 x i8]* %95, i64 0, i64 0
  %97 = call i32 (i8*, ...) @printf(i8* getelementptr inbounds ([4 x i8], [4 x i8]* @.str.1, i64 0, i64 0), i8* %96)
  br label %98

98:                                               ; preds = %92
  %99 = load i32, i32* %3, align 4
  %100 = sub nsw i32 %99, 1
  store i32 %100, i32* %3, align 4
  br label %89

101:                                              ; preds = %89
  %102 = getelementptr inbounds [100 x [20 x i8]], [100 x [20 x i8]]* %1, i64 0, i64 0
  %103 = getelementptr inbounds [20 x i8], [20 x i8]* %102, i64 0, i64 0
  %104 = call i32 (i8*, ...) @printf(i8* getelementptr inbounds ([3 x i8], [3 x i8]* @.str, i64 0, i64 0), i8* %103)
  ret void
}

; Function Attrs: argmemonly nounwind willreturn
declare void @llvm.memset.p0i8.i64(i8* nocapture writeonly, i8, i64, i1 immarg) #1

declare dso_local i32 @gets(...) #2

declare dso_local i32 @printf(i8*, ...) #2


!llvm.module.flags = !{!0}
!llvm.ident = !{!1}

!0 = !{i32 1, !"wchar_size", i32 4}
!1 = !{!"clang version 10.0.0-4ubuntu1 "}
