; ModuleID = 'source-C-CXX/22/47.c'
source_filename = "source-C-CXX/22/47.c"
target datalayout = "e-m:e-p270:32:32-p271:32:32-p272:64:64-i64:64-f80:128-n8:16:32:64-S128"
target triple = "x86_64-pc-linux-gnu"

@.str = private unnamed_addr constant [3 x i8] c"%s\00", align 1
@.str.1 = private unnamed_addr constant [4 x i8] c"%s \00", align 1

; Function Attrs: nounwind sspstrong uwtable
define dso_local void @main() local_unnamed_addr #0 {
  %1 = alloca [100 x [20 x i8]], align 16
  %2 = alloca [100 x i8], align 16
  %3 = getelementptr inbounds [100 x [20 x i8]], [100 x [20 x i8]]* %1, i64 0, i64 0, i64 0
  call void @llvm.lifetime.start.p0i8(i64 2000, i8* nonnull %3) #5
  call void @llvm.memset.p0i8.i64(i8* noundef nonnull align 16 dereferenceable(2000) %3, i8 0, i64 2000, i1 false)
  %4 = getelementptr inbounds [100 x i8], [100 x i8]* %2, i64 0, i64 0
  call void @llvm.lifetime.start.p0i8(i64 100, i8* nonnull %4) #5
  call void @llvm.memset.p0i8.i64(i8* noundef nonnull align 16 dereferenceable(100) %4, i8 0, i64 100, i1 false)
  %5 = call i32 (i8*, ...) bitcast (i32 (...)* @gets to i32 (i8*, ...)*)(i8* nonnull %4) #5
  br label %6

6:                                                ; preds = %13, %0
  %7 = phi i64 [ %15, %13 ], [ 0, %0 ]
  %8 = phi i32 [ %14, %13 ], [ 0, %0 ]
  %9 = getelementptr inbounds [100 x i8], [100 x i8]* %2, i64 0, i64 %7
  %10 = load i8, i8* %9, align 1, !tbaa !5
  switch i8 %10, label %13 [
    i8 0, label %16
    i8 32, label %11
  ]

11:                                               ; preds = %6
  %12 = add nsw i32 %8, 1
  br label %13

13:                                               ; preds = %6, %11
  %14 = phi i32 [ %12, %11 ], [ %8, %6 ]
  %15 = add nuw i64 %7, 1
  br label %6, !llvm.loop !8

16:                                               ; preds = %6
  %17 = add i32 %8, 1
  %18 = icmp slt i32 %8, 0
  br i1 %18, label %48, label %19

19:                                               ; preds = %16
  %20 = zext i32 %17 to i64
  br label %21

21:                                               ; preds = %19, %44
  %22 = phi i64 [ 0, %19 ], [ %46, %44 ]
  %23 = phi i32 [ 0, %19 ], [ %45, %44 ]
  %24 = sext i32 %23 to i64
  %25 = getelementptr inbounds [100 x i8], [100 x i8]* %2, i64 0, i64 %24
  %26 = load i8, i8* %25, align 1, !tbaa !5
  br label %27

27:                                               ; preds = %35, %21
  %28 = phi i8 [ %39, %35 ], [ %26, %21 ]
  %29 = phi i64 [ %41, %35 ], [ 0, %21 ]
  %30 = phi i32 [ %36, %35 ], [ %23, %21 ]
  %31 = icmp eq i8 %28, 32
  br i1 %31, label %35, label %32

32:                                               ; preds = %27
  %33 = getelementptr inbounds [100 x [20 x i8]], [100 x [20 x i8]]* %1, i64 0, i64 %22, i64 %29
  store i8 %28, i8* %33, align 1, !tbaa !5
  %34 = add nsw i32 %30, 1
  br label %35

35:                                               ; preds = %32, %27
  %36 = phi i32 [ %34, %32 ], [ %30, %27 ]
  %37 = sext i32 %36 to i64
  %38 = getelementptr inbounds [100 x i8], [100 x i8]* %2, i64 0, i64 %37
  %39 = load i8, i8* %38, align 1, !tbaa !5
  %40 = icmp ne i8 %39, 32
  %41 = add nuw nsw i64 %29, 1
  %42 = icmp ult i64 %29, 99
  %43 = select i1 %40, i1 %42, i1 false
  br i1 %43, label %27, label %44, !llvm.loop !10

44:                                               ; preds = %35
  %45 = add nsw i32 %36, 1
  %46 = add nuw nsw i64 %22, 1
  %47 = icmp eq i64 %46, %20
  br i1 %47, label %48, label %21, !llvm.loop !11

48:                                               ; preds = %44, %16
  %49 = sext i32 %17 to i64
  %50 = getelementptr inbounds [100 x [20 x i8]], [100 x [20 x i8]]* %1, i64 0, i64 %49, i64 0
  %51 = call i32 (i8*, ...) @printf(i8* nonnull dereferenceable(1) getelementptr inbounds ([3 x i8], [3 x i8]* @.str, i64 0, i64 0), i8* nonnull %50)
  %52 = icmp sgt i32 %8, 0
  br i1 %52, label %53, label %61

53:                                               ; preds = %48
  %54 = zext i32 %8 to i64
  br label %55

55:                                               ; preds = %53, %55
  %56 = phi i64 [ %54, %53 ], [ %60, %55 ]
  %57 = getelementptr inbounds [100 x [20 x i8]], [100 x [20 x i8]]* %1, i64 0, i64 %56, i64 0
  %58 = call i32 (i8*, ...) @printf(i8* nonnull dereferenceable(1) getelementptr inbounds ([4 x i8], [4 x i8]* @.str.1, i64 0, i64 0), i8* nonnull %57)
  %59 = icmp sgt i64 %56, 1
  %60 = add nsw i64 %56, -1
  br i1 %59, label %55, label %61, !llvm.loop !12

61:                                               ; preds = %55, %48
  %62 = call i32 (i8*, ...) @printf(i8* nonnull dereferenceable(1) getelementptr inbounds ([3 x i8], [3 x i8]* @.str, i64 0, i64 0), i8* nonnull %3)
  call void @llvm.lifetime.end.p0i8(i64 100, i8* nonnull %4) #5
  call void @llvm.lifetime.end.p0i8(i64 2000, i8* nonnull %3) #5
  ret void
}

; Function Attrs: argmemonly mustprogress nofree nosync nounwind willreturn
declare void @llvm.lifetime.start.p0i8(i64 immarg, i8* nocapture) #1

; Function Attrs: argmemonly mustprogress nofree nounwind willreturn writeonly
declare void @llvm.memset.p0i8.i64(i8* nocapture writeonly, i8, i64, i1 immarg) #2

declare i32 @gets(...) local_unnamed_addr #3

; Function Attrs: nofree nounwind
declare noundef i32 @printf(i8* nocapture noundef readonly, ...) local_unnamed_addr #4

; Function Attrs: argmemonly mustprogress nofree nosync nounwind willreturn
declare void @llvm.lifetime.end.p0i8(i64 immarg, i8* nocapture) #1


!llvm.module.flags = !{!0, !1, !2, !3}
!llvm.ident = !{!4}

!0 = !{i32 1, !"wchar_size", i32 4}
!1 = !{i32 7, !"PIC Level", i32 2}
!2 = !{i32 7, !"PIE Level", i32 2}
!3 = !{i32 7, !"uwtable", i32 1}
!4 = !{!"clang version 13.0.0"}
!5 = !{!6, !6, i64 0}
!6 = !{!"omnipotent char", !7, i64 0}
!7 = !{!"Simple C/C++ TBAA"}
!8 = distinct !{!8, !9}
!9 = !{!"llvm.loop.mustprogress"}
!10 = distinct !{!10, !9}
!11 = distinct !{!11, !9}
!12 = distinct !{!12, !9}
